; Function Attrs: mustprogress uwtable
define void @_ZN16DecodeAsDelegateC2EP7QObjectP13_capture_file(ptr noundef nonnull align 8 dereferenceable(48) %0, ptr noundef %1, ptr noundef %2) unnamed_addr #0 align 2 personality ptr @__gxx_personality_v0 {
  tail call void @_ZN19QStyledItemDelegateC2EP7QObject(ptr noundef nonnull align 8 dereferenceable(16) %0, ptr noundef %1)
  store ptr getelementptr inbounds ({ [26 x ptr] }, ptr @_ZTV16DecodeAsDelegate, i64 0, i32 0, i64 2), ptr %0, align 8
  %4 = getelementptr inbounds i8, ptr %0, i64 16
  store ptr %2, ptr %4, align 8
  %5 = getelementptr inbounds i8, ptr %0, i64 24
  tail call void @llvm.memset.p0.i64(ptr noundef nonnull align 8 dereferenceable(24) %5, i8 0, i64 24, i1 false)
  invoke void @_ZN16DecodeAsDelegate20cachePacketProtocolsEv(ptr noundef nonnull align 8 dereferenceable(48) %0)
          to label %6 unwind label %7

6:                                                ; preds = %3
  ret void

7:                                                ; preds = %3
  %8 = landingpad { ptr, i32 }
          cleanup
  tail call void @_ZN5QListI20_packet_proto_data_tED2Ev(ptr noundef nonnull align 8 dereferenceable(24) %5) #17
  tail call void @_ZN19QStyledItemDelegateD2Ev(ptr noundef nonnull align 8 dereferenceable(16) %0) #17
  resume { ptr, i32 } %8
}